; Function Attrs: mustprogress uwtable
define noundef i64 @_ZN4base21WriteUnicodeCharacterEjPNSt7__cxx1112basic_stringIcSt11char_traitsIcESaIcEEE(i32 noundef %0, ptr noundef %1) local_unnamed_addr #0 personality ptr @__gxx_personality_v0 {
  %3 = icmp ult i32 %0, 128
  br i1 %3, label %4, label %22

4:                                                ; preds = %2
  %5 = trunc nuw nsw i32 %0 to i8
  %6 = getelementptr inbounds nuw i8, ptr %1, i64 8
  %7 = load i64, ptr %6, align 8, !tbaa !3
  %8 = add i64 %7, 1
  %9 = load ptr, ptr %1, align 8, !tbaa !11
  %10 = getelementptr inbounds nuw i8, ptr %1, i64 16
  %11 = icmp eq ptr %9, %10
  br i1 %11, label %12, label %_ZNKSt7__cxx1112basic_stringIcSt11char_traitsIcESaIcEE8capacityEv.exit.i

12:                                               ; preds = %4
  %13 = icmp ult i64 %7, 16
  tail call void @llvm.assume(i1 %13)
  br label %_ZNKSt7__cxx1112basic_stringIcSt11char_traitsIcESaIcEE8capacityEv.exit.i

_ZNKSt7__cxx1112basic_stringIcSt11char_traitsIcESaIcEE8capacityEv.exit.i: ; preds = %12, %4
  %14 = load i64, ptr %10, align 8
  %15 = select i1 %11, i64 15, i64 %14
  %16 = icmp ugt i64 %8, %15
  br i1 %16, label %17, label %_ZNSt7__cxx1112basic_stringIcSt11char_traitsIcESaIcEE9push_backEc.exit

17:                                               ; preds = %_ZNKSt7__cxx1112basic_stringIcSt11char_traitsIcESaIcEE8capacityEv.exit.i
  tail call void @_ZNSt7__cxx1112basic_stringIcSt11char_traitsIcESaIcEE9_M_mutateEmmPKcm(ptr noundef nonnull align 8 dereferenceable(32) %1, i64 noundef %7, i64 noundef 0, ptr noundef null, i64 noundef 1)
  %.pre.i = load ptr, ptr %1, align 8, !tbaa !11
  br label %_ZNSt7__cxx1112basic_stringIcSt11char_traitsIcESaIcEE9push_backEc.exit

_ZNSt7__cxx1112basic_stringIcSt11char_traitsIcESaIcEE9push_backEc.exit: ; preds = %_ZNKSt7__cxx1112basic_stringIcSt11char_traitsIcESaIcEE8capacityEv.exit.i, %17
  %18 = phi ptr [ %.pre.i, %17 ], [ %9, %_ZNKSt7__cxx1112basic_stringIcSt11char_traitsIcESaIcEE8capacityEv.exit.i ]
  %19 = getelementptr inbounds nuw i8, ptr %18, i64 %7
  store i8 %5, ptr %19, align 1, !tbaa !12
  store i64 %8, ptr %6, align 8, !tbaa !3
  %20 = load ptr, ptr %1, align 8, !tbaa !11
  %21 = getelementptr inbounds nuw i8, ptr %20, i64 %8
  store i8 0, ptr %21, align 1, !tbaa !12
  br label %69

22:                                               ; preds = %2
  %23 = getelementptr inbounds nuw i8, ptr %1, i64 8
  %24 = load i64, ptr %23, align 8, !tbaa !3
  %25 = add i64 %24, 4
  tail call void @_ZNSt7__cxx1112basic_stringIcSt11char_traitsIcESaIcEE6resizeEmc(ptr noundef nonnull align 8 dereferenceable(32) %1, i64 noundef %25, i8 noundef signext 0)
  %26 = icmp ult i32 %0, 2048
  br i1 %26, label %27, label %31

27:                                               ; preds = %22
  %28 = lshr i32 %0, 6
  %29 = trunc nuw i32 %28 to i8
  %30 = or disjoint i8 %29, -64
  br label %58

31:                                               ; preds = %22
  %32 = icmp ult i32 %0, 65536
  %33 = load ptr, ptr %1, align 8, !tbaa !11
  br i1 %32, label %34, label %40

34:                                               ; preds = %31
  %35 = lshr i32 %0, 12
  %36 = trunc nuw i32 %35 to i8
  %37 = or disjoint i8 %36, -32
  %38 = add i64 %24, 1
  %39 = getelementptr inbounds nuw i8, ptr %33, i64 %24
  store i8 %37, ptr %39, align 1, !tbaa !12
  br label %53

40:                                               ; preds = %31
  %41 = lshr i32 %0, 18
  %42 = trunc i32 %41 to i8
  %43 = or i8 %42, -16
  %44 = getelementptr inbounds nuw i8, ptr %33, i64 %24
  store i8 %43, ptr %44, align 1, !tbaa !12
  %45 = lshr i32 %0, 12
  %46 = trunc i32 %45 to i8
  %47 = and i8 %46, 63
  %48 = or disjoint i8 %47, -128
  %49 = load ptr, ptr %1, align 8, !tbaa !11
  %50 = add i64 %24, 2
  %51 = getelementptr i8, ptr %49, i64 %24
  %52 = getelementptr i8, ptr %51, i64 1
  store i8 %48, ptr %52, align 1, !tbaa !12
  br label %53

53:                                               ; preds = %40, %34
  %.2 = phi i64 [ %38, %34 ], [ %50, %40 ]
  %54 = lshr i32 %0, 6
  %55 = trunc i32 %54 to i8
  %56 = and i8 %55, 63
  %57 = or disjoint i8 %56, -128
  br label %58

58:                                               ; preds = %53, %27
  %.2.sink = phi i64 [ %.2, %53 ], [ %24, %27 ]
  %.sink = phi i8 [ %57, %53 ], [ %30, %27 ]
  %59 = load ptr, ptr %1, align 8, !tbaa !11
  %60 = getelementptr inbounds nuw i8, ptr %59, i64 %.2.sink
  store i8 %.sink, ptr %60, align 1, !tbaa !12
  %61 = trunc i32 %0 to i8
  %62 = and i8 %61, 63
  %63 = or disjoint i8 %62, -128
  %64 = load ptr, ptr %1, align 8, !tbaa !11
  %65 = getelementptr i8, ptr %64, i64 %.2.sink
  %66 = getelementptr i8, ptr %65, i64 1
  store i8 %63, ptr %66, align 1, !tbaa !12
  %67 = add i64 %.2.sink, 2
  tail call void @_ZNSt7__cxx1112basic_stringIcSt11char_traitsIcESaIcEE6resizeEmc(ptr noundef nonnull align 8 dereferenceable(32) %1, i64 noundef %67, i8 noundef signext 0)
  %68 = sub i64 %67, %24
  br label %69

69:                                               ; preds = %58, %_ZNSt7__cxx1112basic_stringIcSt11char_traitsIcESaIcEE9push_backEc.exit
  %.0 = phi i64 [ 1, %_ZNSt7__cxx1112basic_stringIcSt11char_traitsIcESaIcEE9push_backEc.exit ], [ %68, %58 ]
  ret i64 %.0
}